; Function Attrs: mustprogress nounwind uwtable
define hidden noundef nonnull align 8 dereferenceable(96) ptr @_ZNK18XLoadBarrierStubC24liveEv(ptr nocapture noundef nonnull readonly align 8 dereferenceable(168) %0) local_unnamed_addr #0 align 2 {
  %2 = tail call align 8 ptr @llvm.threadlocal.address.p0(ptr align 8 @_ZN6Thread12_thr_currentE)
  %3 = load ptr, ptr %2, align 8
  %4 = getelementptr inbounds i8, ptr %3, i64 1808
  %5 = load ptr, ptr %4, align 8
  %6 = getelementptr inbounds i8, ptr %5, i64 128
  %7 = load ptr, ptr %6, align 8
  %8 = getelementptr inbounds i8, ptr %7, i64 344
  %9 = load ptr, ptr %8, align 8
  %10 = load ptr, ptr %0, align 8
  %11 = getelementptr inbounds i8, ptr %10, i64 44
  %12 = load i32, ptr %11, align 4
  %13 = and i32 %12, 3
  %14 = icmp eq i32 %13, 2
  tail call void @llvm.assume(i1 %14)
  %15 = getelementptr inbounds i8, ptr %10, i64 52
  %16 = load i8, ptr %15, align 4
  %17 = icmp ne i8 %16, 0
  tail call void @llvm.assume(i1 %17)
  %18 = getelementptr inbounds i8, ptr %9, i64 8
  %19 = getelementptr inbounds i8, ptr %10, i64 40
  %20 = load i32, ptr %19, align 8
  %21 = getelementptr inbounds i8, ptr %9, i64 16
  %22 = load i32, ptr %21, align 8
  %23 = icmp ugt i32 %22, %20
  br i1 %23, label %_ZNK10Node_ArrayixEj.exit.i, label %_ZNK10Node_ArrayixEj.exit.thread.i

_ZNK10Node_ArrayixEj.exit.i:                      ; preds = %1
  %24 = getelementptr inbounds i8, ptr %9, i64 24
  %25 = load ptr, ptr %24, align 8
  %26 = zext i32 %20 to i64
  %27 = getelementptr inbounds ptr, ptr %25, i64 %26
  %28 = load ptr, ptr %27, align 8
  %29 = icmp eq ptr %28, null
  br i1 %29, label %_ZNK10Node_ArrayixEj.exit.thread.i, label %_ZN18XBarrierSetC2State4liveEPK4Node.exit

_ZNK10Node_ArrayixEj.exit.thread.i:               ; preds = %_ZNK10Node_ArrayixEj.exit.i, %1
  %30 = getelementptr inbounds i8, ptr %7, i64 336
  %31 = load ptr, ptr %30, align 8
  %32 = getelementptr inbounds i8, ptr %7, i64 328
  %33 = load ptr, ptr %32, align 8
  %34 = ptrtoint ptr %31 to i64
  %35 = ptrtoint ptr %33 to i64
  %36 = sub i64 %34, %35
  %.not.i.i.i = icmp ult i64 %36, 96
  br i1 %.not.i.i.i, label %39, label %37

37:                                               ; preds = %_ZNK10Node_ArrayixEj.exit.thread.i
  %38 = getelementptr inbounds i8, ptr %33, i64 96
  store ptr %38, ptr %32, align 8
  br label %_ZN5Arena12AmallocWordsEmN17AllocFailStrategy13AllocFailEnumE.exit.i

39:                                               ; preds = %_ZNK10Node_ArrayixEj.exit.thread.i
  %40 = getelementptr inbounds i8, ptr %7, i64 296
  %41 = tail call noundef ptr @_ZN5Arena4growEmN17AllocFailStrategy13AllocFailEnumE(ptr noundef nonnull align 8 dereferenceable(48) %40, i64 noundef 96, i32 noundef 0) #12
  br label %_ZN5Arena12AmallocWordsEmN17AllocFailStrategy13AllocFailEnumE.exit.i

_ZN5Arena12AmallocWordsEmN17AllocFailStrategy13AllocFailEnumE.exit.i: ; preds = %39, %37
  %.0.i.i.i = phi ptr [ %33, %37 ], [ %41, %39 ]
  tail call void @llvm.memset.p0.i64(ptr noundef nonnull align 8 dereferenceable(88) %.0.i.i.i, i8 0, i64 88, i1 false)
  %42 = getelementptr inbounds i8, ptr %.0.i.i.i, i64 88
  store i32 10, ptr %42, align 8
  %43 = getelementptr inbounds i8, ptr %.0.i.i.i, i64 92
  store i32 0, ptr %43, align 4
  %44 = load i32, ptr %19, align 8
  %45 = load i32, ptr %21, align 8
  %.not.i.i = icmp ugt i32 %45, %44
  br i1 %.not.i.i, label %_ZN10Node_Array3mapEjP4Node.exit.i, label %46

46:                                               ; preds = %_ZN5Arena12AmallocWordsEmN17AllocFailStrategy13AllocFailEnumE.exit.i
  tail call void @_ZN10Node_Array4growEj(ptr noundef nonnull align 8 dereferenceable(24) %18, i32 noundef %44) #12
  br label %_ZN10Node_Array3mapEjP4Node.exit.i

_ZN10Node_Array3mapEjP4Node.exit.i:               ; preds = %46, %_ZN5Arena12AmallocWordsEmN17AllocFailStrategy13AllocFailEnumE.exit.i
  %47 = getelementptr inbounds i8, ptr %9, i64 24
  %48 = load ptr, ptr %47, align 8
  %49 = zext i32 %44 to i64
  %50 = getelementptr inbounds ptr, ptr %48, i64 %49
  store ptr %.0.i.i.i, ptr %50, align 8
  br label %_ZN18XBarrierSetC2State4liveEPK4Node.exit

_ZN18XBarrierSetC2State4liveEPK4Node.exit:        ; preds = %_ZNK10Node_ArrayixEj.exit.i, %_ZN10Node_Array3mapEjP4Node.exit.i
  %.010.i = phi ptr [ %.0.i.i.i, %_ZN10Node_Array3mapEjP4Node.exit.i ], [ %28, %_ZNK10Node_ArrayixEj.exit.i ]
  ret ptr %.010.i
}